Certificate:
    Data:
        Version: 3 (0x2)
        Serial Number: 1 (0x1)
    Signature Algorithm: sha256WithRSAEncryption
        Issuer: C=US, ST=California, L=Santa Barbara, O=Internet Widgits Pty Ltd, CN=certs.scrummaster.com
        Validity
            Not Before: Apr 24 05:23:28 2016 GMT
            Not After : Apr 24 05:23:28 2017 GMT
        Subject: C=US, ST=California, L=Santa Barbara, O=Internet Widgits Pty Ltd, CN=certs.scrummaster.com
        Subject Public Key Info:
            Public Key Algorithm: rsaEncryption
                Public-Key: (2048 bit)
                Modulus:
                    00:dc:88:d7:b2:c4:ac:20:5e:a5:5e:ed:70:a1:4d:
                    c1:2a:3c:3e:20:32:b0:94:e5:cb:1f:bc:08:d1:5a:
                    4d:87:fb:e8:82:4a:3b:71:49:3b:21:63:fc:e6:a0:
                    d8:83:cf:7e:9c:1f:48:a6:4c:6f:55:f2:93:82:b4:
                    a6:e3:f8:c2:fb:6c:a3:6b:8a:05:31:88:c7:35:4f:
                    d9:8d:2a:ed:b6:ad:97:fc:cc:64:74:4b:b8:49:ba:
                    03:b7:fe:99:79:8b:25:f9:ea:d7:16:d6:1e:98:56:
                    f5:a8:ca:58:6a:d6:8c:13:f4:98:5b:5c:5b:94:f4:
                    12:a6:8e:0a:a2:9a:1a:20:d0:da:cb:b9:09:47:e0:
                    b2:d3:96:cc:3e:88:71:78:35:ff:e0:52:05:9f:80:
                    2c:d4:a6:03:13:44:b1:6a:74:d6:23:c7:cd:e6:99:
                    ae:f1:90:d8:ef:f6:df:2b:ba:85:a2:f1:4a:9f:c6:
                    46:d0:56:b0:af:c7:e1:75:56:05:a0:0a:ef:70:06:
                    5f:2c:4d:3e:9a:f1:86:83:4f:fd:c2:3a:6d:04:17:
                    d1:27:f8:fd:96:6a:53:19:e4:89:8b:7c:64:77:1f:
                    1c:53:01:84:e1:dd:96:7f:26:0f:31:21:3a:95:e8:
                    bb:8b:40:0c:32:5b:62:8f:48:d1:b7:94:f9:72:38:
                    00:c7
                Exponent: 65537 (0x10001)
        X509v3 extensions:
            X509v3 Basic Constraints: 
                CA:FALSE
            Netscape Comment: 
                OpenSSL Generated Certificate
            X509v3 Subject Key Identifier: 
                87:16:0E:9A:31:FE:9E:EE:67:4B:2C:88:F1:69:C3:87:54:0D:C0:9B
            X509v3 Authority Key Identifier: 
                keyid:B7:24:E7:19:40:9D:54:EB:8D:7C:F0:C9:CE:E2:57:5E:EF:10:3A:6B

    Signature Algorithm: sha256WithRSAEncryption
         77:44:8b:74:ef:68:c9:ef:b5:48:c1:84:28:1e:f5:45:b2:a0:
         90:81:5b:29:af:4a:d6:a5:f4:75:48:93:23:0f:c2:44:f2:25:
         4b:5f:30:f7:2d:1d:c7:0f:91:d2:c8:23:8c:0c:72:b9:8c:37:
         57:c5:2c:36:0b:8f:42:11:5b:a9:69:1d:27:b1:b6:b5:1f:e9:
         1e:31:4e:53:c8:45:33:38:97:54:0a:c7:16:68:5e:6b:49:2f:
         77:8f:6b:95:1f:7e:a5:3c:5e:b0:fd:30:42:97:9e:ab:ad:fe:
         ad:05:2f:28:54:d8:87:da:04:5e:4d:bf:d8:3d:8e:6f:13:98:
         70:52:94:1b:ab:31:dc:4c:89:19:30:5d:34:8c:f5:03:ab:3a:
         d8:99:b1:59:aa:f6:1a:c9:bf:f9:39:d3:8a:e9:1b:d1:df:a1:
         79:3e:b1:7f:db:c5:66:f6:1d:da:59:ef:2a:dc:ee:ab:14:3a:
         17:26:a4:4e:2f:e1:a9:7d:db:50:a7:d1:7f:59:fe:b4:b9:5e:
         ea:51:a2:94:38:17:31:40:d2:0b:24:3a:cf:9b:fb:62:c9:a0:
         f9:c2:d7:fc:ed:84:4a:90:8e:e4:9d:78:25:c7:d5:7f:43:ad:
         5d:83:bf:49:9d:77:0e:4b:a5:c3:d2:b4:67:42:c2:ea:e0:a7:
         fd:48:17:3c
-----BEGIN CERTIFICATE-----
MIID8DCCAtigAwIBAgIBATANBgkqhkiG9w0BAQsFADB9MQswCQYDVQQGEwJVUzET
MBEGA1UECAwKQ2FsaWZvcm5pYTEWMBQGA1UEBwwNU2FudGEgQmFyYmFyYTEhMB8G
A1UECgwYSW50ZXJuZXQgV2lkZ2l0cyBQdHkgTHRkMR4wHAYDVQQDDBVjZXJ0cy5z
Y3J1bW1hc3Rlci5jb20wHhcNMTYwNDI0MDUyMzI4WhcNMTcwNDI0MDUyMzI4WjB9
MQswCQYDVQQGEwJVUzETMBEGA1UECAwKQ2FsaWZvcm5pYTEWMBQGA1UEBwwNU2Fu
dGEgQmFyYmFyYTEhMB8GA1UECgwYSW50ZXJuZXQgV2lkZ2l0cyBQdHkgTHRkMR4w
HAYDVQQDDBVjZXJ0cy5zY3J1bW1hc3Rlci5jb20wggEiMA0GCSqGSIb3DQEBAQUA
A4IBDwAwggEKAoIBAQDciNeyxKwgXqVe7XChTcEqPD4gMrCU5csfvAjRWk2H++iC
SjtxSTshY/zmoNiDz36cH0imTG9V8pOCtKbj+ML7bKNrigUxiMc1T9mNKu22rZf8
zGR0S7hJugO3/pl5iyX56tcW1h6YVvWoylhq1owT9JhbXFuU9BKmjgqimhog0NrL
uQlH4LLTlsw+iHF4Nf/gUgWfgCzUpgMTRLFqdNYjx83mma7xkNjv9t8ruoWi8Uqf
xkbQVrCvx+F1VgWgCu9wBl8sTT6a8YaDT/3COm0EF9En+P2WalMZ5ImLfGR3HxxT
AYTh3ZZ/Jg8xITqV6LuLQAwyW2KPSNG3lPlyOADHAgMBAAGjezB5MAkGA1UdEwQC
MAAwLAYJYIZIAYb4QgENBB8WHU9wZW5TU0wgR2VuZXJhdGVkIENlcnRpZmljYXRl
MB0GA1UdDgQWBBSHFg6aMf6e7mdLLIjxacOHVA3AmzAfBgNVHSMEGDAWgBS3JOcZ
QJ1U64188MnO4lde7xA6azANBgkqhkiG9w0BAQsFAAOCAQEAd0SLdO9oye+1SMGE
KB71RbKgkIFbKa9K1qX0dUiTIw/CRPIlS18w9y0dxw+R0sgjjAxyuYw3V8UsNguP
QhFbqWkdJ7G2tR/pHjFOU8hFMziXVArHFmhea0kvd49rlR9+pTxesP0wQpeeq63+
rQUvKFTYh9oEXk2/2D2ObxOYcFKUG6sx3EyJGTBdNIz1A6s62JmxWar2Gsm/+TnT
iukb0d+heT6xf9vFZvYd2lnvKtzuqxQ6FyakTi/hqX3bUKfRf1n+tLle6lGilDgX
MUDSCyQ6z5v7Ysmg+cLX/O2ESpCO5J14JcfVf0OtXYO/SZ13Dkulw9K0Z0LC6uCn
/UgXPA==
-----END CERTIFICATE-----
